; Function Attrs: mustprogress nounwind uwtable
define hidden noundef nonnull ptr @_ZN17jumpXtnd_addrNode6ExpandEP5StateR9Node_ListP4Node(ptr noundef nonnull returned align 8 dereferenceable(176) %0, ptr noundef %1, ptr nocapture noundef nonnull readnone align 8 dereferenceable(28) %2, ptr nocapture noundef readnone %3) unnamed_addr #0 align 2 {
  %5 = tail call align 8 ptr @llvm.threadlocal.address.p0(ptr align 8 @_ZN6Thread12_thr_currentE)
  %6 = load ptr, ptr %5, align 8
  %7 = getelementptr inbounds i8, ptr %6, i64 1808
  %8 = load ptr, ptr %7, align 8
  %9 = getelementptr inbounds i8, ptr %8, i64 128
  %10 = load ptr, ptr %9, align 8
  %11 = getelementptr inbounds i8, ptr %10, i64 728
  %12 = load ptr, ptr %11, align 8
  %13 = getelementptr inbounds i8, ptr %12, i64 40
  %14 = load ptr, ptr %13, align 8
  %15 = getelementptr inbounds i8, ptr %12, i64 32
  %16 = load ptr, ptr %15, align 8
  %17 = ptrtoint ptr %14 to i64
  %18 = ptrtoint ptr %16 to i64
  %19 = sub i64 %17, %18
  %.not.i.i.i = icmp ult i64 %19, 72
  br i1 %.not.i.i.i, label %22, label %20

20:                                               ; preds = %4
  %21 = getelementptr inbounds i8, ptr %16, i64 72
  store ptr %21, ptr %15, align 8
  br label %_ZN4NodenwEm.exit

22:                                               ; preds = %4
  %23 = tail call noundef ptr @_ZN5Arena4growEmN17AllocFailStrategy13AllocFailEnumE(ptr noundef nonnull align 8 dereferenceable(48) %12, i64 noundef 72, i32 noundef 0) #7
  br label %_ZN4NodenwEm.exit

_ZN4NodenwEm.exit:                                ; preds = %20, %22
  %.0.i.i.i = phi ptr [ %16, %20 ], [ %23, %22 ]
  %24 = icmp eq ptr %.0.i.i.i, null
  br i1 %24, label %33, label %25

25:                                               ; preds = %_ZN4NodenwEm.exit
  %26 = tail call noundef ptr @_ZN5State17MachOperGeneratorEi(ptr noundef nonnull align 8 dereferenceable(1920) %1, i32 noundef 49) #7
  tail call void @_ZN4NodeC2Ej(ptr noundef nonnull align 8 dereferenceable(52) %.0.i.i.i, i32 noundef 0) #7
  %27 = getelementptr inbounds i8, ptr %.0.i.i.i, i64 52
  store i8 0, ptr %27, align 4
  %28 = getelementptr inbounds i8, ptr %.0.i.i.i, i64 54
  %29 = getelementptr inbounds i8, ptr %.0.i.i.i, i64 56
  %30 = getelementptr inbounds i8, ptr %.0.i.i.i, i64 44
  store ptr getelementptr inbounds inrange(-16, 360) (i8, ptr @_ZTV12MachTempNode, i64 16), ptr %.0.i.i.i, align 8
  store i32 34, ptr %30, align 4
  store i16 1, ptr %28, align 2
  %31 = getelementptr inbounds i8, ptr %.0.i.i.i, i64 64
  store ptr %31, ptr %29, align 8
  tail call void @_ZN4Node7add_reqEPS_(ptr noundef nonnull align 8 dereferenceable(52) %.0.i.i.i, ptr noundef null) #7
  %32 = load ptr, ptr %29, align 8
  store ptr %26, ptr %32, align 8
  br label %33

33:                                               ; preds = %25, %_ZN4NodenwEm.exit
  tail call void @_ZN4Node7add_reqEPS_(ptr noundef nonnull align 8 dereferenceable(52) %0, ptr noundef %.0.i.i.i) #7
  %34 = tail call noundef ptr @_ZN7Compile23mach_constant_base_nodeEv(ptr noundef nonnull align 8 dereferenceable(2316) %10) #7
  tail call void @_ZN4Node7add_reqEPS_(ptr noundef nonnull align 8 dereferenceable(52) %0, ptr noundef %34) #7
  ret ptr %0
}